CCS PCM C Compiler, Version 5.015, 5967               26-abr.-21 19:59

               Filename:   C:\Users\cxdso\Desktop\UNIOVI\Proyectos independientes\Nevera\medidor L\proyecto_ccs\med_L.lst

               ROM used:   677 words (17%)
                           Largest free fragment is 2048
               RAM used:   28 (8%) at main() level
                           47 (13%) worst case
               Stack used: 5 locations (4 in main + 1 for interrupts)
               Stack size: 8

*
0000:  MOVLW  02
0001:  MOVWF  0A
0002:  GOTO   23F
0003:  NOP
0004:  MOVWF  7F
0005:  SWAPF  03,W
0006:  CLRF   03
0007:  MOVWF  21
0008:  MOVF   7F,W
0009:  MOVWF  20
000A:  MOVF   0A,W
000B:  MOVWF  2B
000C:  CLRF   0A
000D:  SWAPF  20,F
000E:  MOVF   04,W
000F:  MOVWF  22
0010:  MOVF   77,W
0011:  MOVWF  23
0012:  MOVF   78,W
0013:  MOVWF  24
0014:  MOVF   79,W
0015:  MOVWF  25
0016:  MOVF   7A,W
0017:  MOVWF  26
0018:  BSF    03.6
0019:  MOVF   0D,W
001A:  BCF    03.6
001B:  MOVWF  27
001C:  BSF    03.6
001D:  MOVF   0F,W
001E:  BCF    03.6
001F:  MOVWF  28
0020:  BSF    03.6
0021:  MOVF   0C,W
0022:  BCF    03.6
0023:  MOVWF  29
0024:  BSF    03.6
0025:  MOVF   0E,W
0026:  BCF    03.6
0027:  MOVWF  2A
0028:  BCF    03.7
0029:  BCF    03.5
002A:  MOVLW  8C
002B:  MOVWF  04
002C:  BTFSS  00.0
002D:  GOTO   030
002E:  BTFSC  0C.0
002F:  GOTO   051
0030:  MOVF   22,W
0031:  MOVWF  04
0032:  MOVF   23,W
0033:  MOVWF  77
0034:  MOVF   24,W
0035:  MOVWF  78
0036:  MOVF   25,W
0037:  MOVWF  79
0038:  MOVF   26,W
0039:  MOVWF  7A
003A:  MOVF   27,W
003B:  BSF    03.6
003C:  MOVWF  0D
003D:  BCF    03.6
003E:  MOVF   28,W
003F:  BSF    03.6
0040:  MOVWF  0F
0041:  BCF    03.6
0042:  MOVF   29,W
0043:  BSF    03.6
0044:  MOVWF  0C
0045:  BCF    03.6
0046:  MOVF   2A,W
0047:  BSF    03.6
0048:  MOVWF  0E
0049:  BCF    03.6
004A:  MOVF   2B,W
004B:  MOVWF  0A
004C:  SWAPF  21,W
004D:  MOVWF  03
004E:  SWAPF  7F,F
004F:  SWAPF  7F,W
0050:  RETFIE
0051:  BCF    0A.3
0052:  GOTO   05B
.................... #include <med_L.h> 
.................... #include <16F88.h> 
.................... //////////// Standard Header file for the PIC16F88 device //////////////// 
.................... /////////////////////////////////////////////////////////////////////////// 
.................... ////        (C) Copyright 1996, 2013 Custom Computer Services          //// 
.................... //// This source code may only be used by licensed users of the CCS C  //// 
.................... //// compiler.  This source code may only be distributed to other      //// 
.................... //// licensed users of the CCS C compiler.  No other use, reproduction //// 
.................... //// or distribution is permitted without written permission.          //// 
.................... //// Derivative programs created using this software in object code    //// 
.................... //// form are not restricted in any way.                               //// 
.................... /////////////////////////////////////////////////////////////////////////// 
.................... #device PIC16F88 
0053:  BCF    0A.0
0054:  BCF    0A.1
0055:  BCF    0A.2
0056:  ADDWF  02,F
0057:  RETLW  28
0058:  RETLW  0C
0059:  RETLW  01
005A:  RETLW  06
*
0076:  DATA D3,32
0077:  DATA ED,34
0078:  DATA F0,32
0079:  DATA F2,34
007A:  DATA 6F,32
007B:  DATA 6F,1D
007C:  DATA A0,12
007D:  DATA CC,3A
007E:  DATA A0,36
007F:  DATA 73,00
*
0121:  MOVLW  10
0122:  MOVWF  3B
0123:  CLRF   77
0124:  CLRF   7A
0125:  RRF    38,F
0126:  RRF    37,F
0127:  BTFSS  03.0
0128:  GOTO   12F
0129:  MOVF   39,W
012A:  ADDWF  77,F
012B:  BTFSC  03.0
012C:  INCF   7A,F
012D:  MOVF   3A,W
012E:  ADDWF  7A,F
012F:  RRF    7A,F
0130:  RRF    77,F
0131:  RRF    79,F
0132:  RRF    78,F
0133:  DECFSZ 3B,F
0134:  GOTO   125
0135:  BCF    0A.3
0136:  GOTO   285 (RETURN)
*
0183:  MOVF   0B,W
0184:  MOVWF  38
0185:  BCF    0B.7
0186:  BSF    03.5
0187:  BSF    03.6
0188:  BSF    0C.7
0189:  BSF    0C.0
018A:  NOP
018B:  NOP
018C:  BCF    03.5
018D:  BCF    03.6
018E:  BTFSC  38.7
018F:  BSF    0B.7
0190:  BTFSC  03.0
0191:  GOTO   1BA
0192:  BSF    03.6
0193:  MOVF   0C,W
0194:  ANDLW  7F
0195:  BCF    03.6
0196:  MOVWF  38
0197:  BSF    03.6
0198:  MOVF   0D,W
0199:  BCF    03.6
019A:  MOVWF  39
019B:  BSF    03.6
019C:  MOVF   0F,W
019D:  BCF    03.6
019E:  MOVWF  3A
019F:  MOVF   38,W
01A0:  MOVWF  40
01A1:  CALL   137
01A2:  MOVF   39,W
01A3:  BSF    03.6
01A4:  MOVWF  0D
01A5:  BCF    03.6
01A6:  MOVF   3A,W
01A7:  BSF    03.6
01A8:  MOVWF  0F
01A9:  BCF    03.6
01AA:  MOVF   0B,W
01AB:  MOVWF  3B
01AC:  BCF    0B.7
01AD:  BSF    03.5
01AE:  BSF    03.6
01AF:  BSF    0C.7
01B0:  BSF    0C.0
01B1:  NOP
01B2:  NOP
01B3:  BCF    03.5
01B4:  BCF    03.6
01B5:  BTFSC  3B.7
01B6:  BSF    0B.7
01B7:  DECFSZ 37,F
01B8:  GOTO   1BA
01B9:  GOTO   1D9
01BA:  BSF    03.6
01BB:  RLF    0C,W
01BC:  RLF    0E,W
01BD:  ANDLW  7F
01BE:  BCF    03.6
01BF:  MOVWF  38
01C0:  BSF    03.6
01C1:  MOVF   0D,W
01C2:  BCF    03.6
01C3:  MOVWF  39
01C4:  BSF    03.6
01C5:  MOVF   0F,W
01C6:  BCF    03.6
01C7:  MOVWF  3A
01C8:  MOVF   38,W
01C9:  MOVWF  40
01CA:  CALL   137
01CB:  MOVF   39,W
01CC:  BSF    03.6
01CD:  MOVWF  0D
01CE:  BCF    03.6
01CF:  MOVF   3A,W
01D0:  BSF    03.6
01D1:  MOVWF  0F
01D2:  INCF   0D,F
01D3:  BTFSC  03.2
01D4:  INCF   0F,F
01D5:  BCF    03.0
01D6:  BCF    03.6
01D7:  DECFSZ 37,F
01D8:  GOTO   183
01D9:  BCF    0A.3
01DA:  GOTO   293 (RETURN)
01DB:  CLRF   3F
01DC:  MOVF   04,W
01DD:  MOVWF  3E
01DE:  BCF    3F.0
01DF:  BTFSC  03.7
01E0:  BSF    3F.0
01E1:  SWAPF  38,W
01E2:  IORLW  F0
01E3:  MOVWF  3A
01E4:  ADDWF  3A,F
01E5:  ADDLW  E2
01E6:  MOVWF  3B
01E7:  ADDLW  32
01E8:  MOVWF  3D
01E9:  MOVF   38,W
01EA:  ANDLW  0F
01EB:  ADDWF  3B,F
01EC:  ADDWF  3B,F
01ED:  ADDWF  3D,F
01EE:  ADDLW  E9
01EF:  MOVWF  3C
01F0:  ADDWF  3C,F
01F1:  ADDWF  3C,F
01F2:  SWAPF  37,W
01F3:  ANDLW  0F
01F4:  ADDWF  3C,F
01F5:  ADDWF  3D,F
01F6:  RLF    3C,F
01F7:  RLF    3D,F
01F8:  COMF   3D,F
01F9:  RLF    3D,F
01FA:  MOVF   37,W
01FB:  ANDLW  0F
01FC:  ADDWF  3D,F
01FD:  RLF    3A,F
01FE:  MOVLW  07
01FF:  MOVWF  39
0200:  MOVLW  0A
0201:  ADDWF  3D,F
0202:  DECF   3C,F
0203:  BTFSS  03.0
0204:  GOTO   201
0205:  ADDWF  3C,F
0206:  DECF   3B,F
0207:  BTFSS  03.0
0208:  GOTO   205
0209:  ADDWF  3B,F
020A:  DECF   3A,F
020B:  BTFSS  03.0
020C:  GOTO   209
020D:  ADDWF  3A,F
020E:  DECF   39,F
020F:  BTFSS  03.0
0210:  GOTO   20D
0211:  MOVLW  39
0212:  MOVWF  04
0213:  BCF    03.7
0214:  MOVLW  07
0215:  ANDWF  3E,W
0216:  BCF    3E.6
0217:  ADDWF  04,F
0218:  MOVLW  3D
0219:  SUBWF  04,W
021A:  BTFSC  03.2
021B:  BSF    3E.6
021C:  MOVF   00,W
021D:  MOVWF  77
021E:  BTFSS  03.2
021F:  GOTO   228
0220:  BTFSC  3E.6
0221:  GOTO   228
0222:  BTFSC  3E.4
0223:  GOTO   23A
0224:  BTFSC  3E.3
0225:  GOTO   228
0226:  MOVLW  20
0227:  GOTO   22B
0228:  BSF    3E.3
0229:  BCF    3E.4
022A:  MOVLW  30
022B:  ADDWF  77,F
022C:  CLRF   38
022D:  MOVF   04,W
022E:  MOVWF  37
022F:  BCF    38.0
0230:  BTFSC  03.7
0231:  BSF    38.0
0232:  MOVF   77,W
0233:  MOVWF  40
0234:  CALL   137
0235:  MOVF   37,W
0236:  MOVWF  04
0237:  BCF    03.7
0238:  BTFSC  38.0
0239:  BSF    03.7
023A:  INCF   04,F
023B:  BTFSS  3E.6
023C:  GOTO   218
023D:  BCF    0A.3
023E:  GOTO   29A (RETURN)
....................  
.................... #list 
....................  
.................... #device ADC=10 
....................  
.................... #FUSES NOWDT                    //No Watch Dog Timer 
.................... #FUSES NOBROWNOUT               //No brownout reset 
.................... #FUSES NOLVP                    //No low voltage prgming, B3(PIC16) or B5(PIC18) used for I/O 
....................  
.................... #use delay(internal=4MHz) 
*
0080:  MOVLW  41
0081:  MOVWF  04
0082:  BCF    03.7
0083:  MOVF   00,W
0084:  BTFSC  03.2
0085:  GOTO   094
0086:  MOVLW  01
0087:  MOVWF  78
0088:  CLRF   77
0089:  DECFSZ 77,F
008A:  GOTO   089
008B:  DECFSZ 78,F
008C:  GOTO   088
008D:  MOVLW  4A
008E:  MOVWF  77
008F:  DECFSZ 77,F
0090:  GOTO   08F
0091:  GOTO   092
0092:  DECFSZ 00,F
0093:  GOTO   086
0094:  RETURN
....................  
.................... #bit    Pulsador = 0x005.3 //RA3 
.................... #bit    Mosfet = 0x005.5 //RA5 
....................  
....................  
.................... //PUERTOS 
.................... #byte    PORTA = 0x005 
.................... #byte    TRISA = 0x085 
.................... #byte    PORTB = 0x006 
.................... #byte    TRISB = 0x086 
....................  
.................... //PORTA 
.................... #bit    RA0 = 0x005.0 
.................... #bit    RA1 = 0x005.1 
.................... #bit    RA2 = 0x005.2 
.................... #bit    RA3 = 0x005.3 
.................... #bit    RA4 = 0x005.4 
.................... #bit    RA5 = 0x005.5 
.................... #bit    RA6 = 0x005.6 
.................... #bit    RA7 = 0x005.7 
....................  
.................... //TRISA 
.................... #bit    TRISA0 = 0x085.0 
.................... #bit    TRISA1 = 0x085.1 
.................... #bit    TRISA2 = 0x085.2 
.................... #bit    TRISA3 = 0x085.3 
.................... #bit    TRISA4 = 0x085.4 
.................... #bit    TRISA5 = 0x085.5 
.................... #bit    TRISA6 = 0x085.6 
.................... #bit    TRISA7 = 0x085.7 
....................  
.................... //PORTB 
.................... #bit    RB0 = 0x006.0 
.................... #bit    RB1 = 0x006.1 
.................... #bit    RB2 = 0x006.2 
.................... #bit    RB3 = 0x006.3 
.................... #bit    RB4 = 0x006.4 
.................... #bit    RB5 = 0x006.5 
.................... #bit    RB6 = 0x006.6 
.................... #bit    RB7 = 0x006.7 
....................  
.................... #include "Control_LCD.c" 
.................... //////////////////////////////////////////////////////////////////////////// 
.................... ////           Funciones para manejo de LCD con driver                  ////  
.................... ////                                                                    //// 
.................... ////                                                                    //// 
.................... ////************************************************************************ 
.................... //////////////////////////////////////////////////////////////////////////// 
.................... ////   La escritura la hace en el orden habitual:                       //// 
.................... ////   primero se escribe el nibble de la parte alta y luego parte baja //// 
.................... ////                                                                    //// 
.................... ////   Definimos una directiva de compilacion que nos permitirá cambiar ////     
.................... ////   el orden en el que escribimos los nibbles en el LCD. Si no       //// 
.................... ////   esta comentada, significa que operamos de la forma habitual      //// 
.................... ////   y mandamos primero la parte alta                                 //// 
....................  
.................... #define  LCD_OM16214 //Si se dispone de una placa con modelo que no sea OM16214, se debe comentar esta línea 
....................                        //Si el modelo es OM16214 debe aparecer la línea sin comentar 
.................... //// *********************************************************************** 
.................... //////////////////////////////////////////////////////////////////////////// 
....................  
.................... // La conexion del LCD se realiza con pines del PORTC: 
.................... // 
.................... //     RB7  queda libre 
.................... //     RB6  es E 
.................... //     RB5  es RW 
.................... //     RB4  es RS 
.................... //     RB3  es D7 
.................... //     RB2  es D6 
.................... //     RB1  es D5 
.................... //     RB0  es D4 
.................... //    
....................  
.................... //Declaramos una variable que se llama "lcd" de tipo estructura, con varios campos. 
.................... //Estamos declarando en total ocho bits. Los primero que se definan van a ser los bits 
.................... //mas bajos. Asi que estamos definiendo los pins segun la conexion de la placa. 
.................... //El ultimo bit, controla la alimentación del LCD. En nuestro caso, como va a estar 
.................... //conectado siempre a Vcc, lo definimos como "nada". 
....................  
....................  
.................... struct lcd_pin_map {   
....................          int        
....................             data : 4;          // las 4 líneas bajas serán las de datos (menos peso) 
....................              
....................              
....................             BOOLEAN rs;        //RC5 será rs     
....................             BOOLEAN rw;        //RC6 será rw           
....................             BOOLEAN enable;    //RC7 será enable     
....................             BOOLEAN nada;      //Pin que no usamospara nada 
....................              
....................         } lcd; 
....................  
....................  
.................... // Asigno el lcd al puerto C. Hacemos la asignación de la dirección de manera directa 
....................  
.................... #locate lcd = 0x06      //Dirección del puerto B: PORTB en dirección 0x06 
....................  
.................... //Estamos colocando la variable "lcd" en el puerto B. 
....................  
.................... #byte tris_lcd = 0x86   //Para definir la dirección de los datos en el PORTB 
....................  
.................... //Con esto, cargamos el registro de la direccion de datos, definiendo los puertos 
.................... //como salidas o entradas. 
....................  
.................... //NOTA: como no controlamos el pin Vcc del display (que controla la alimentacion), y lo  
.................... //conectamos directamente a +5V, en las funciones definidas se ha eliminado la linea  
.................... //correspondiente que encendia o apagaba el LCD. 
....................  
....................  
....................  
.................... #define lcd_type 2           // 0=5x7, 1=5x10, 2=2 lines 
.................... #define lcd_line_two 0x40    // LCD RAM address for the second line 
....................  
.................... ///////////////////////////////////////////////////////////////////////////////////////////// 
.................... // La constante LCD_INIT_STRING[4] recoge los 4 códigos de inicialización que se envian 
.................... // al LCD y son muy importantes. Se deben cambiar para adaptar a otras necesidades. 
.................... ///////////////////////////////////////////////////////////////////////////////////////////// 
....................  
.................... BYTE const LCD_INIT_STRING[4] = {0x28, 0x0C, 0x01, 0x06}; 
.................... // 
.................... // El significado de los códigos es el siguiente: 
.................... // 0x28 = 0010 1000 = 001 DL  N F ** 
.................... // entonces DL=0 control a 4 bits (DL=0 sería control con 8 bits) 
.................... // N =1 significa 2 lineas  (N=0 sería 1 línea) 
.................... // F=0 significa, caracteres 5x8  (F=1 sería 5x10) 
.................... // 
.................... // 0x0C = 0000 1100 = 0000 1 D C B 
.................... // es el control de display ON/OFF 
.................... // D=1 significa diaplay ON 
.................... // C=0 significa cursor OFF (puede interesar poner C=1 para ver donde esta el cursor) 
.................... // B=0 sigifica parpadeo del cursor OFF 
.................... // 
.................... // 0x01 = 0000 0001 significa borrar display 
.................... // 
.................... // 0x06 = 0000 0110 = 0000 01 I/D S 
.................... // selecciona el modo de funcionamiento (Entry mode set) 
.................... // I/D = 1 significa incremento automatico del cursor 
.................... // S = 0 sifnifica sin desplazamiento del display 
.................... // 
....................  
.................... //Prototipos de las funciones posteriores 
.................... void lcd_init(); 
.................... void lcd_reset(); 
....................  
.................... byte lcd_read_byte(); 
.................... void lcd_send_nibble(byte n); 
.................... void lcd_send_byte(byte address, byte n); 
.................... void lcd_gotoxy(byte x, byte y); 
.................... void lcd_putc(char c); 
.................... char lcd_getc(byte x, byte y); 
.................... void lcd_clr_line(char fila); 
.................... void lcd_set_cgram(char cgram_p); 
....................  
.................... ///////////////////////////////////////////////////////////////////////////////////////////// 
.................... // Lee el byte señalado por el puntero, 1º parte baja, 2º parte alta 
.................... // Si al llamar a esta función rs=0, devuelve busy flag (BF) (+signif.) y dirección actual 
.................... ///////////////////////////////////////////////////////////////////////////////////////////// 
.................... // OJO: Este LCD recoge los nibbles en orden inverso a los demás LCD: primero parte baja y  
.................... // luego la parte alta 
.................... ///////////////////////////////////////////////////////////////////////////////////////////// 
....................  
.................... BYTE lcd_read_byte() { 
....................       BYTE low,high; 
....................       tris_lcd = 0b00001111;    //Se definen las líneas bajas como entradas 
*
00A2:  MOVLW  0F
00A3:  BSF    03.5
00A4:  MOVWF  06
....................       lcd.rw = 1; 
00A5:  BCF    03.5
00A6:  BSF    06.5
....................       delay_cycles(1); 
00A7:  NOP
....................       lcd.enable = 1; 
00A8:  BSF    06.6
....................       delay_cycles(1); 
00A9:  NOP
....................       #IFDEF LCD_OM16214  //Directiva decompilación adicional. Si esta definida, lo hace. 
....................         high = lcd.data;  //con modelo LCD_OM16214 se lee primero la parte alta (lo habitual) 
00AA:  MOVF   06,W
00AB:  ANDLW  0F
00AC:  MOVWF  48
....................       #ELSE 
....................         low = lcd.data; // Con LCD_SO1602 se lee primero la parte baja (ES AL REVÉS QUE EN OTROS LCDs) 
....................       #ENDIF 
....................        
....................       lcd.enable = 0; 
00AD:  BCF    06.6
....................       delay_cycles(1); 
00AE:  NOP
....................       lcd.enable = 1; 
00AF:  BSF    06.6
....................       delay_us(1); 
00B0:  NOP
....................        
....................       #IFDEF LCD_OM16214 
....................         low = lcd.data;   //con modelo OM16214 se lee después la parte baja (más habitual) 
00B1:  MOVF   06,W
00B2:  ANDLW  0F
00B3:  MOVWF  47
....................       #ELSE 
....................         high = lcd.data; // Con LCD_SO1602 se lee despues la parte alta (AL REVÉS QUE EN OTROS LCDs) 
....................       #ENDIF 
....................  
....................       lcd.enable = 0; 
00B4:  BCF    06.6
....................       tris_lcd = 0b00000000;    //Volvemos a dejar el PORTD como puerto de salida 
00B5:  BSF    03.5
00B6:  CLRF   06
....................       return( (high<<4) | low); 
00B7:  BCF    03.5
00B8:  SWAPF  48,W
00B9:  MOVWF  77
00BA:  MOVLW  F0
00BB:  ANDWF  77,F
00BC:  MOVF   77,W
00BD:  IORWF  47,W
00BE:  MOVWF  78
.................... } 
....................  
.................... ///////////////////////////////////////////////////////////////////////////////////////////// 
.................... // Envía medio byte, los 4 bits más bajos de n 
.................... // Necesario poner rs y rw de modo adecuado y entrar con enable=0 
.................... ///////////////////////////////////////////////////////////////////////////////////////////// 
....................  
.................... void lcd_send_nibble( BYTE n ) { 
....................       lcd.data = n; 
*
0095:  MOVF   48,W
0096:  ANDLW  0F
0097:  MOVWF  77
0098:  MOVLW  F0
0099:  ANDWF  06,W
009A:  IORWF  77,W
009B:  MOVWF  06
....................       delay_cycles(1); 
009C:  NOP
....................       lcd.enable = 1; 
009D:  BSF    06.6
....................       delay_us(2); 
009E:  GOTO   09F
....................       lcd.enable = 0; 
009F:  BCF    06.6
00A0:  RETURN
.................... } 
....................  
.................... ///////////////////////////////////////////////////////////////////////////////////////////// 
.................... // Envía un byte (n) al registro de instrucciones (si address=0) o reg. de datos (address=1) 
.................... // Utiliza lcd_send_nibble(n) enviando primero nibble alto del byte 
.................... ///////////////////////////////////////////////////////////////////////////////////////////// 
....................  
.................... void lcd_send_byte( BYTE address, BYTE n ) { 
....................  
....................       lcd.rs = 0; 
00A1:  BCF    06.4
....................       while ( bit_test(lcd_read_byte(),7) ) ; 
*
00BF:  MOVF   78,W
00C0:  MOVWF  47
00C1:  BTFSC  47.7
00C2:  GOTO   0A2
....................      // 
....................      //delay_us(100); 
....................       lcd.rs = address; 
00C3:  BTFSS  45.0
00C4:  BCF    06.4
00C5:  BTFSC  45.0
00C6:  BSF    06.4
....................       delay_cycles(1); 
00C7:  NOP
....................       lcd.rw = 0; 
00C8:  BCF    06.5
....................       delay_cycles(1); 
00C9:  NOP
....................       lcd.enable = 0; 
00CA:  BCF    06.6
....................       lcd_send_nibble(n >> 4); 
00CB:  SWAPF  46,W
00CC:  MOVWF  47
00CD:  MOVLW  0F
00CE:  ANDWF  47,F
00CF:  MOVF   47,W
00D0:  MOVWF  48
00D1:  CALL   095
....................       lcd_send_nibble(n & 0xf); 
00D2:  MOVF   46,W
00D3:  ANDLW  0F
00D4:  MOVWF  47
00D5:  MOVWF  48
00D6:  CALL   095
00D7:  RETURN
....................   
.................... } 
....................  
.................... /////////////////////////////////////////////////////////////////////////////////////////// 
.................... /// Función que inicializa el LCD, se deberían cambiar bits para cambiar configuracion 
.................... /////////////////////////////////////////////////////////////////////////////////////////// 
.................... void lcd_init() { 
....................     BYTE i; 
....................     tris_lcd = 0b00000000;  //PORTC de salida 
00D8:  BSF    03.5
00D9:  CLRF   06
....................     lcd.rs = 0; 
00DA:  BCF    03.5
00DB:  BCF    06.4
....................     lcd.rw = 0; 
00DC:  BCF    06.5
....................     lcd.enable = 0; 
00DD:  BCF    06.6
....................      
....................     
....................    //Envíos para resetear por software el LCD 
....................     delay_ms(15); 
00DE:  MOVLW  0F
00DF:  MOVWF  41
00E0:  CALL   080
....................     for(i=1;i<=3;++i) { 
00E1:  MOVLW  01
00E2:  MOVWF  37
00E3:  MOVF   37,W
00E4:  SUBLW  03
00E5:  BTFSS  03.0
00E6:  GOTO   0EF
....................        lcd_send_nibble(3); 
00E7:  MOVLW  03
00E8:  MOVWF  48
00E9:  CALL   095
....................        delay_ms(5); 
00EA:  MOVLW  05
00EB:  MOVWF  41
00EC:  CALL   080
00ED:  INCF   37,F
00EE:  GOTO   0E3
....................     } 
....................     lcd_send_nibble(2); 
00EF:  MOVLW  02
00F0:  MOVWF  48
00F1:  CALL   095
....................     /////fin del reseteo por software 
....................      
....................     //Se envían ahora los comandos de inicialización 
....................     for(i=0;i<=3;++i){ 
00F2:  CLRF   37
00F3:  MOVF   37,W
00F4:  SUBLW  03
00F5:  BTFSS  03.0
00F6:  GOTO   103
....................        lcd_send_byte(0,LCD_INIT_STRING[i]); 
00F7:  MOVF   37,W
00F8:  CALL   053
00F9:  MOVWF  38
00FA:  CLRF   45
00FB:  MOVF   38,W
00FC:  MOVWF  46
00FD:  CALL   0A1
....................       delay_ms(5); 
00FE:  MOVLW  05
00FF:  MOVWF  41
0100:  CALL   080
0101:  INCF   37,F
0102:  GOTO   0F3
....................    } 
0103:  BCF    0A.3
0104:  GOTO   273 (RETURN)
.................... } 
....................  
.................... /////////////////////////////////////////////////////////////////////////////////////////// 
.................... /// Función que resetea el LCD por software 
.................... /////////////////////////////////////////////////////////////////////////////////////////// 
.................... void lcd_reset() 
.................... { 
....................     BYTE i; 
....................     tris_lcd = 0b00000000; 
0105:  BSF    03.5
0106:  CLRF   06
....................     lcd.rs = 0; 
0107:  BCF    03.5
0108:  BCF    06.4
....................     lcd.rw = 0; 
0109:  BCF    06.5
....................     lcd.enable = 0; 
010A:  BCF    06.6
....................     
....................     
....................    //Envíos para resetear por software el LCD 
....................     delay_ms(15); 
010B:  MOVLW  0F
010C:  MOVWF  41
010D:  CALL   080
....................     for(i=1;i<=3;++i) { 
010E:  MOVLW  01
010F:  MOVWF  37
0110:  MOVF   37,W
0111:  SUBLW  03
0112:  BTFSS  03.0
0113:  GOTO   11C
....................        lcd_send_nibble(0x03); 
0114:  MOVLW  03
0115:  MOVWF  48
0116:  CALL   095
....................        delay_ms(5); 
0117:  MOVLW  05
0118:  MOVWF  41
0119:  CALL   080
011A:  INCF   37,F
011B:  GOTO   110
....................     } 
....................     lcd_send_nibble(0x02); 
011C:  MOVLW  02
011D:  MOVWF  48
011E:  CALL   095
011F:  BCF    0A.3
0120:  GOTO   274 (RETURN)
....................     /////fin del reseteo por software 
....................  
....................  
.................... } 
.................... ///////////////////////////////////////////////////////////////////////////////////////////// 
.................... // Sitúa el contador de direcciones en la DDRAM (para lectura o escritura posterior) 
.................... // x puede ir de 1 a 40, posición dentro de una línea (16 visibles) 
.................... // y puede ser 1 (línea 1) o 2 (línea 2) 
.................... ///////////////////////////////////////////////////////////////////////////////////////////// 
....................  
.................... void lcd_gotoxy( BYTE x, BYTE y) { 
....................    BYTE address; 
....................  
....................    if(y!=1) 
*
0157:  DECFSZ 42,W
0158:  GOTO   15A
0159:  GOTO   15D
....................      address=lcd_line_two; 
015A:  MOVLW  40
015B:  MOVWF  43
015C:  GOTO   15E
....................    else 
....................      address=0; 
015D:  CLRF   43
....................    address+=x-1; 
015E:  MOVLW  01
015F:  SUBWF  41,W
0160:  ADDWF  43,F
....................    lcd_send_byte(0,0b10000000|address); 
0161:  MOVF   43,W
0162:  IORLW  80
0163:  MOVWF  44
0164:  CLRF   45
0165:  MOVF   44,W
0166:  MOVWF  46
0167:  CALL   0A1
.................... } 
....................  
.................... //////////////////////////////////////////////////////////////////////////////////////////// 
.................... // Envía un carácter c a la DDRAM del LCD, también algunos caracteres de control 
.................... //Poniendolo entre comillas simples estamos mandando el caracter, es decir, estamos 
.................... //mandando el codigo ASCII.  
.................... //////////////////////////////////////////////////////////////////////////////////////////// 
....................  
.................... void lcd_putc( char c)  
.................... { 
....................    switch (c) { 
*
0137:  MOVF   40,W
0138:  XORLW  0C
0139:  BTFSC  03.2
013A:  GOTO   14B
013B:  XORLW  06
013C:  BTFSC  03.2
013D:  GOTO   153
013E:  XORLW  02
013F:  BTFSC  03.2
0140:  GOTO   169
0141:  XORLW  01
0142:  BTFSC  03.2
0143:  GOTO   16E
0144:  XORLW  04
0145:  BTFSC  03.2
0146:  GOTO   173
0147:  XORLW  06
0148:  BTFSC  03.2
0149:  GOTO   178
014A:  GOTO   17D
....................      case '\f'   : lcd_send_byte(0,1);    //Limpia la pantalla 
014B:  CLRF   45
014C:  MOVLW  01
014D:  MOVWF  46
014E:  CALL   0A1
....................                    delay_ms(2); 
014F:  MOVLW  02
0150:  MOVWF  41
0151:  CALL   080
....................                    break; 
0152:  GOTO   182
....................      case '\n'   : lcd_gotoxy(1,2);       //Coloca puntero en 1ª posicion de la 2ª línea 
0153:  MOVLW  01
0154:  MOVWF  41
0155:  MOVLW  02
0156:  MOVWF  42
....................                    break; 
*
0168:  GOTO   182
....................      case '\b'   : lcd_send_byte(0,0x10); //Retrocede una posición el cursor 
0169:  CLRF   45
016A:  MOVLW  10
016B:  MOVWF  46
016C:  CALL   0A1
....................                    break; 
016D:  GOTO   182
....................      case '\t'   : lcd_send_byte(0,0x14); //Avanza una posición el cursor 
016E:  CLRF   45
016F:  MOVLW  14
0170:  MOVWF  46
0171:  CALL   0A1
....................                    break; 
0172:  GOTO   182
....................      case '\r'   : lcd_send_byte(0,0x18); //Retrocede una posición la pantalla visible 
0173:  CLRF   45
0174:  MOVLW  18
0175:  MOVWF  46
0176:  CALL   0A1
....................                    break; 
0177:  GOTO   182
....................      case '\v'   : lcd_send_byte(0,0x1C); //Avanza una posición la pantalla visible 
0178:  CLRF   45
0179:  MOVLW  1C
017A:  MOVWF  46
017B:  CALL   0A1
....................                    break; 
017C:  GOTO   182
....................      default     : lcd_send_byte(1,c);    //Envía caracter a DDRAM, 
017D:  MOVLW  01
017E:  MOVWF  45
017F:  MOVF   40,W
0180:  MOVWF  46
0181:  CALL   0A1
....................                    break;                 //Si es una tira, los envía todos uno a uno 
....................              } 
0182:  RETURN
.................... } 
....................  
.................... /////////////////////////////////////////////////////////////////////////////////////////// 
.................... // Devuelve el carácter situado en la posición x,y de la DDRAM 
.................... /////////////////////////////////////////////////////////////////////////////////////////// 
....................  
.................... char lcd_getc( BYTE x, BYTE y) { 
....................    char value; 
....................  
....................     lcd_gotoxy(x,y); 
....................     while ( bit_test(lcd_read_byte(),7) ); // espera a que el flag de ocupado esté a 0 
....................     lcd.rs=1; 
....................     value = lcd_read_byte(); 
....................     lcd.rs=0; 
....................     return(value); 
.................... } 
....................  
.................... //////////////////////////////////////////////////////////////////////////////////// 
.................... // Limpia la linea correspondiente y se situa al principio de la misma            // 
.................... //////////////////////////////////////////////////////////////////////////////////// 
.................... void lcd_clr_line(char fila) 
.................... { 
....................    int j; 
....................  
....................    lcd_gotoxy(1,fila); 
....................     for (j=0;j<40;j++) lcd_putc(' '); 
....................  
....................     lcd_gotoxy(1,fila); 
.................... } 
.................... /////////////////////////////////////////////////////////////////////////////////////////////////////////// 
.................... // Función que coloca el puntero en una dirección de la CGRAM para definir luego nuevos caracteres       // 
.................... /////////////////////////////////////////////////////////////////////////////////////////////////////////// 
.................... void lcd_set_cgram(char cgram_p) 
.................... { 
....................    lcd_send_byte(0,0b01000000|cgram_p);   //Las direcciones de CGRAM empiezan por 01xxxxxx 
.................... } 
....................  
....................  
....................  
....................  
....................  
....................  
....................  
....................  
....................  
....................  
.................... #define precarga_TMR1 0 
....................  
....................  
.................... int16 contador_ticks_tmr1 = 0; 
.................... int16 cuenta_ticks_tmr1 = 0; 
.................... int cuenta_disponible = 0; 
.................... int midiendo = 0; 
.................... int16 ticks_ref = 0; 
.................... int presalida_mosfet = 0; 
.................... int16 valor_adc=0; 
....................  
.................... #INT_TIMER1 
.................... void  TIMER1_isr(void)  
.................... { 
....................    //set_timer1(precaga_TMR1); 
.................... //!   if(midiendo) 
.................... //!      contador_ticks_tmr1++; 
....................  
.................... contador_ticks_tmr1++; 
*
005B:  INCF   2C,F
005C:  BTFSC  03.2
005D:  INCF   2D,F
.................... if (contador_ticks_tmr1 > ticks_ref) 
005E:  MOVF   33,W
005F:  SUBWF  2D,W
0060:  BTFSS  03.0
0061:  GOTO   073
0062:  BTFSS  03.2
0063:  GOTO   068
0064:  MOVF   2C,W
0065:  SUBWF  32,W
0066:  BTFSC  03.0
0067:  GOTO   073
.................... { 
....................    presalida_mosfet = !presalida_mosfet; 
0068:  MOVF   34,F
0069:  BTFSC  03.2
006A:  GOTO   06D
006B:  MOVLW  00
006C:  GOTO   06E
006D:  MOVLW  01
006E:  MOVWF  34
....................    Mosfet= presalida_mosfet; 
006F:  BTFSS  34.0
0070:  BCF    05.5
0071:  BTFSC  34.0
0072:  BSF    05.5
.................... } 
....................  
0073:  BCF    0C.0
0074:  BCF    0A.3
0075:  GOTO   030
.................... } 
....................  
....................  
.................... //!#INT_COMP 
.................... //!void  COMP_isr(void)  
.................... //!{ 
.................... //!   cuenta_ticks_tmr1 = contador_ticks_tmr1; 
.................... //!    
.................... //!   cuenta_disponible = 1; 
.................... //!} 
....................  
.................... void main() 
*
023F:  MOVF   03,W
0240:  ANDLW  1F
0241:  MOVWF  03
0242:  MOVLW  62
0243:  BSF    03.5
0244:  MOVWF  0F
0245:  MOVF   0F,W
0246:  BCF    03.5
0247:  CLRF   2D
0248:  CLRF   2C
0249:  CLRF   2F
024A:  CLRF   2E
024B:  CLRF   30
024C:  CLRF   31
024D:  CLRF   33
024E:  CLRF   32
024F:  CLRF   34
0250:  CLRF   36
0251:  CLRF   35
0252:  BSF    03.5
0253:  BCF    1F.4
0254:  BCF    1F.5
0255:  MOVF   1B,W
0256:  ANDLW  80
0257:  MOVWF  1B
0258:  MOVLW  07
0259:  MOVWF  1C
025A:  BCF    03.7
.................... { 
....................    setup_timer_0(RTCC_INTERNAL|RTCC_DIV_4|RTCC_8_bit);      //1,0 ms overflow 
025B:  MOVF   01,W
025C:  ANDLW  C0
025D:  IORLW  01
025E:  MOVWF  01
....................    setup_adc_ports(sAN0); 
025F:  BCF    1F.4
0260:  BCF    1F.5
0261:  MOVF   1B,W
0262:  ANDLW  80
0263:  IORLW  01
0264:  MOVWF  1B
....................    setup_adc(ADC_CLOCK_DIV_2); 
0265:  BCF    1F.6
0266:  BCF    03.5
0267:  BCF    1F.6
0268:  BCF    1F.7
0269:  BSF    03.5
026A:  BSF    1F.7
026B:  BCF    03.5
026C:  BSF    1F.0
....................  
....................  
....................  
....................    //setup_comparator(NC_NC_A1_A2); //Senal C2OUT-RA4- desde RA1 y RA2 
....................     
....................    enable_interrupts(INT_TIMER1); 
026D:  BSF    03.5
026E:  BSF    0C.0
....................    //enable_interrupts(INT_COMP); 
....................    enable_interrupts(GLOBAL); 
026F:  MOVLW  C0
0270:  BCF    03.5
0271:  IORWF  0B,F
....................  
....................    //set_timer1(65036); 
....................    lcd_init(); 
0272:  GOTO   0D8
....................    lcd_reset(); 
0273:  GOTO   105
....................  
....................    while(TRUE) 
....................    { 
.................... //!      while (!Pulsador){}  //Espero a pulsación 
.................... //!      printf(LCD_putc,"Midiendo..."); 
.................... //!      set_timer1(precarga_TMR1); 
.................... //!      contador_ticks_tmr1 = 0; 
.................... //!      Mosfet = 1; 
.................... //!      midiendo = 1; 
.................... //!      while (!cuenta_disponible ){} //Espero a acabar medida 
.................... //!      midiendo = 0; 
.................... //!      cuenta_disponible = 0; 
.................... //!      Mosfet = 0; 
.................... //!      //calculo cuenta 
.................... //!      printf(LCD_putc,"Ts: %Lu ms\nL: ", cuenta_ticks_tmr1); 
....................        
....................        
....................       valor_adc = read_adc(); 
0274:  BSF    1F.2
0275:  BTFSC  1F.2
0276:  GOTO   275
0277:  BSF    03.5
0278:  MOVF   1E,W
0279:  BCF    03.5
027A:  MOVWF  35
027B:  MOVF   1E,W
027C:  MOVWF  36
....................  
....................  ticks_ref = 10* valor_adc; 
027D:  CLRF   38
027E:  MOVLW  0A
027F:  MOVWF  37
0280:  MOVF   36,W
0281:  MOVWF  3A
0282:  MOVF   35,W
0283:  MOVWF  39
0284:  GOTO   121
0285:  MOVF   79,W
0286:  MOVWF  33
0287:  MOVF   78,W
0288:  MOVWF  32
....................  
....................       printf(LCD_putc,"Semiperiodo: %Lu ms", ticks_ref); 
0289:  MOVLW  76
028A:  BSF    03.6
028B:  MOVWF  0D
028C:  MOVLW  00
028D:  MOVWF  0F
028E:  BCF    03.0
028F:  MOVLW  0D
0290:  BCF    03.6
0291:  MOVWF  37
0292:  GOTO   183
0293:  MOVLW  10
0294:  MOVWF  04
0295:  MOVF   33,W
0296:  MOVWF  38
0297:  MOVF   32,W
0298:  MOVWF  37
0299:  GOTO   1DB
029A:  MOVLW  20
029B:  MOVWF  40
029C:  CALL   137
029D:  MOVLW  6D
029E:  MOVWF  40
029F:  CALL   137
02A0:  MOVLW  73
02A1:  MOVWF  40
02A2:  CALL   137
02A3:  GOTO   274
....................    } 
....................  
.................... } 
02A4:  SLEEP

Configuration Fuses:
   Word  1: 3F30   NOWDT PUT INTRC_IO MCLR NOBROWNOUT NOLVP NOCPD NOWRT NODEBUG CCPB0 NOPROTECT
   Word  2: 3FFF   FCMEN IESO
